; Function Attrs: nounwind uwtable
define internal void @webvtt_end_cb(ptr noundef %0) #1 {
  %2 = getelementptr inbounds nuw i8, ptr %0, i64 1112
  %3 = load i32, ptr %2, align 8, !tbaa !54
  %.not1215.i = icmp eq i32 %3, 0
  br i1 %.not1215.i, label %webvtt_stack_push_pop.exit, label %.lr.ph.i

.lr.ph.i:                                         ; preds = %1
  %4 = getelementptr inbounds nuw i8, ptr %0, i64 1048
  br label %5

5:                                                ; preds = %webvtt_stack_pop.exit.i, %.lr.ph.i
  %6 = phi i32 [ %3, %.lr.ph.i ], [ %14, %webvtt_stack_pop.exit.i ]
  %7 = icmp slt i32 %6, 1
  br i1 %7, label %webvtt_stack_pop.exit.i, label %8

8:                                                ; preds = %5
  %9 = add nsw i32 %6, -1
  store i32 %9, ptr %2, align 8, !tbaa !54
  %10 = zext nneg i32 %9 to i64
  %11 = getelementptr inbounds nuw [64 x i8], ptr %4, i64 0, i64 %10
  %12 = load i8, ptr %11, align 1, !tbaa !55
  %13 = sext i8 %12 to i32
  br label %webvtt_stack_pop.exit.i

webvtt_stack_pop.exit.i:                          ; preds = %8, %5
  %.0.i.i = phi i32 [ %13, %8 ], [ 0, %5 ]
  tail call void (ptr, ptr, ...) @webvtt_print(ptr noundef nonnull %0, ptr noundef nonnull @.str.10, i32 noundef %.0.i.i)
  %14 = load i32, ptr %2, align 8, !tbaa !54
  %.not12.i = icmp eq i32 %14, 0
  br i1 %.not12.i, label %webvtt_stack_push_pop.exit, label %5, !llvm.loop !59

webvtt_stack_push_pop.exit:                       ; preds = %webvtt_stack_pop.exit.i, %1
  ret void
}